; Function Attrs: nounwind uwtable
define dso_local i32 @clusteracct_storage_g_register_ctld(ptr noundef %0, i16 noundef zeroext %1) local_unnamed_addr #0 {
  %3 = load i32, ptr @plugin_inited, align 4
  %4 = icmp eq i32 %3, 1
  br i1 %4, label %8, label %5

5:                                                ; preds = %2
  %6 = load ptr, ptr getelementptr inbounds nuw (i8, ptr @ops, i64 472), align 8
  %7 = tail call i32 %6(ptr noundef %0, i16 noundef zeroext %1) #8
  br label %8

8:                                                ; preds = %2, %5
  %.0 = phi i32 [ %7, %5 ], [ 0, %2 ]
  ret i32 %.0
}